target datalayout = "e-m:e-p270:32:32-p271:32:32-p272:64:64-i64:64-i128:128-f80:128-n8:16:32:64-S128"
target triple = "x86_64-pc-linux-gnu"

%struct.PJconsts = type { ptr, ptr, ptr, ptr, ptr, ptr, ptr, ptr, ptr, ptr, ptr, ptr, i32, ptr, ptr, ptr, ptr, ptr, ptr, ptr, ptr, double, double, double, double, double, double, double, double, double, double, double, double, double, double, double, double, double, double, double, double, double, double, i32, i32, i32, i32, i32, i32, i32, i32, i32, i32, i32, ptr, ptr, ptr, ptr, ptr, ptr, double, double, double, double, double, double, double, double, double, double, double, i32, [7 x double], i32, ptr, ptr, double, double, i32, [4 x i8], %"class.std::shared_ptr", i8, double, i8, %"class.std::__cxx11::basic_string", %"class.std::__cxx11::basic_string", %"class.std::__cxx11::basic_string", i8, %"class.std::vector", i32, %"class.std::vector.3", i32, i8, i8, i8, ptr }
%"class.std::shared_ptr" = type { %"class.std::__shared_ptr" }
%"class.std::__shared_ptr" = type { ptr, %"class.std::__shared_count" }
%"class.std::__shared_count" = type { ptr }
%"class.std::__cxx11::basic_string" = type { %"struct.std::__cxx11::basic_string<char>::_Alloc_hider", i64, %union.anon }
%"struct.std::__cxx11::basic_string<char>::_Alloc_hider" = type { ptr }
%union.anon = type { i64, [8 x i8] }
%"class.std::vector" = type { %"struct.std::_Vector_base" }
%"struct.std::_Vector_base" = type { %"struct.std::_Vector_base<osgeo::proj::operation::GridDescription, std::allocator<osgeo::proj::operation::GridDescription>>::_Vector_impl" }
%"struct.std::_Vector_base<osgeo::proj::operation::GridDescription, std::allocator<osgeo::proj::operation::GridDescription>>::_Vector_impl" = type { %"struct.std::_Vector_base<osgeo::proj::operation::GridDescription, std::allocator<osgeo::proj::operation::GridDescription>>::_Vector_impl_data" }
%"struct.std::_Vector_base<osgeo::proj::operation::GridDescription, std::allocator<osgeo::proj::operation::GridDescription>>::_Vector_impl_data" = type { ptr, ptr, ptr }
%"class.std::vector.3" = type { %"struct.std::_Vector_base.4" }
%"struct.std::_Vector_base.4" = type { %"struct.std::_Vector_base<PJCoordOperation, std::allocator<PJCoordOperation>>::_Vector_impl" }
%"struct.std::_Vector_base<PJCoordOperation, std::allocator<PJCoordOperation>>::_Vector_impl" = type { %"struct.std::_Vector_base<PJCoordOperation, std::allocator<PJCoordOperation>>::_Vector_impl_data" }
%"struct.std::_Vector_base<PJCoordOperation, std::allocator<PJCoordOperation>>::_Vector_impl_data" = type { ptr, ptr, ptr }
%"struct.(anonymous namespace)::pj_opaque_affine" = type { double, double, double, double, %"struct.(anonymous namespace)::pj_affine_coeffs", %"struct.(anonymous namespace)::pj_affine_coeffs" }
%"struct.(anonymous namespace)::pj_affine_coeffs" = type { double, double, double, double, double, double, double, double, double, double }
%struct.PJ_XYZ = type { double, double, double }
%struct.PJ_XYZT = type { double, double, double, double }

; Function Attrs: mustprogress nounwind uwtable
define internal void @_ZL10forward_4dR8PJ_COORDP8PJconsts(ptr noundef nonnull align 8 dereferenceable(32) %0, ptr noundef %1) #3 {
  %3 = alloca ptr, align 8
  %4 = alloca ptr, align 8
  %5 = alloca ptr, align 8
  %6 = alloca ptr, align 8
  %7 = alloca double, align 8
  %8 = alloca double, align 8
  %9 = alloca double, align 8
  store ptr %0, ptr %3, align 8, !tbaa !73
  store ptr %1, ptr %4, align 8, !tbaa !3
  call void @llvm.lifetime.start.p0(i64 8, ptr %5) #8
  %10 = load ptr, ptr %4, align 8, !tbaa !3
  %11 = getelementptr inbounds nuw %struct.PJconsts, ptr %10, i32 0, i32 11
  %12 = load ptr, ptr %11, align 8, !tbaa !43
  store ptr %12, ptr %5, align 8, !tbaa !41
  call void @llvm.lifetime.start.p0(i64 8, ptr %6) #8
  %13 = load ptr, ptr %5, align 8, !tbaa !41
  %14 = getelementptr inbounds nuw %"struct.(anonymous namespace)::pj_opaque_affine", ptr %13, i32 0, i32 4
  store ptr %14, ptr %6, align 8, !tbaa !75
  call void @llvm.lifetime.start.p0(i64 8, ptr %7) #8
  %15 = load ptr, ptr %3, align 8, !tbaa !73
  %16 = getelementptr inbounds nuw %struct.PJ_XYZ, ptr %15, i32 0, i32 0
  %17 = load double, ptr %16, align 8, !tbaa !52
  store double %17, ptr %7, align 8, !tbaa !77
  call void @llvm.lifetime.start.p0(i64 8, ptr %8) #8
  %18 = load ptr, ptr %3, align 8, !tbaa !73
  %19 = getelementptr inbounds nuw %struct.PJ_XYZ, ptr %18, i32 0, i32 1
  %20 = load double, ptr %19, align 8, !tbaa !52
  store double %20, ptr %8, align 8, !tbaa !77
  call void @llvm.lifetime.start.p0(i64 8, ptr %9) #8
  %21 = load ptr, ptr %3, align 8, !tbaa !73
  %22 = getelementptr inbounds nuw %struct.PJ_XYZ, ptr %21, i32 0, i32 2
  %23 = load double, ptr %22, align 8, !tbaa !52
  store double %23, ptr %9, align 8, !tbaa !77
  %24 = load ptr, ptr %5, align 8, !tbaa !41
  %25 = getelementptr inbounds nuw %"struct.(anonymous namespace)::pj_opaque_affine", ptr %24, i32 0, i32 0
  %26 = load double, ptr %25, align 8, !tbaa !53
  %27 = load ptr, ptr %6, align 8, !tbaa !75
  %28 = getelementptr inbounds nuw %"struct.(anonymous namespace)::pj_affine_coeffs", ptr %27, i32 0, i32 0
  %29 = load double, ptr %28, align 8, !tbaa !78
  %30 = load double, ptr %7, align 8, !tbaa !77
  %31 = call double @llvm.fmuladd.f64(double %29, double %30, double %26)
  %32 = load ptr, ptr %6, align 8, !tbaa !75
  %33 = getelementptr inbounds nuw %"struct.(anonymous namespace)::pj_affine_coeffs", ptr %32, i32 0, i32 1
  %34 = load double, ptr %33, align 8, !tbaa !79
  %35 = load double, ptr %8, align 8, !tbaa !77
  %36 = call double @llvm.fmuladd.f64(double %34, double %35, double %31)
  %37 = load ptr, ptr %6, align 8, !tbaa !75
  %38 = getelementptr inbounds nuw %"struct.(anonymous namespace)::pj_affine_coeffs", ptr %37, i32 0, i32 2
  %39 = load double, ptr %38, align 8, !tbaa !80
  %40 = load double, ptr %9, align 8, !tbaa !77
  %41 = call double @llvm.fmuladd.f64(double %39, double %40, double %36)
  %42 = load ptr, ptr %3, align 8, !tbaa !73
  %43 = getelementptr inbounds nuw %struct.PJ_XYZT, ptr %42, i32 0, i32 0
  store double %41, ptr %43, align 8, !tbaa !52
  %44 = load ptr, ptr %5, align 8, !tbaa !41
  %45 = getelementptr inbounds nuw %"struct.(anonymous namespace)::pj_opaque_affine", ptr %44, i32 0, i32 1
  %46 = load double, ptr %45, align 8, !tbaa !56
  %47 = load ptr, ptr %6, align 8, !tbaa !75
  %48 = getelementptr inbounds nuw %"struct.(anonymous namespace)::pj_affine_coeffs", ptr %47, i32 0, i32 3
  %49 = load double, ptr %48, align 8, !tbaa !81
  %50 = load double, ptr %7, align 8, !tbaa !77
  %51 = call double @llvm.fmuladd.f64(double %49, double %50, double %46)
  %52 = load ptr, ptr %6, align 8, !tbaa !75
  %53 = getelementptr inbounds nuw %"struct.(anonymous namespace)::pj_affine_coeffs", ptr %52, i32 0, i32 4
  %54 = load double, ptr %53, align 8, !tbaa !82
  %55 = load double, ptr %8, align 8, !tbaa !77
  %56 = call double @llvm.fmuladd.f64(double %54, double %55, double %51)
  %57 = load ptr, ptr %6, align 8, !tbaa !75
  %58 = getelementptr inbounds nuw %"struct.(anonymous namespace)::pj_affine_coeffs", ptr %57, i32 0, i32 5
  %59 = load double, ptr %58, align 8, !tbaa !83
  %60 = load double, ptr %9, align 8, !tbaa !77
  %61 = call double @llvm.fmuladd.f64(double %59, double %60, double %56)
  %62 = load ptr, ptr %3, align 8, !tbaa !73
  %63 = getelementptr inbounds nuw %struct.PJ_XYZT, ptr %62, i32 0, i32 1
  store double %61, ptr %63, align 8, !tbaa !52
  %64 = load ptr, ptr %5, align 8, !tbaa !41
  %65 = getelementptr inbounds nuw %"struct.(anonymous namespace)::pj_opaque_affine", ptr %64, i32 0, i32 2
  %66 = load double, ptr %65, align 8, !tbaa !57
  %67 = load ptr, ptr %6, align 8, !tbaa !75
  %68 = getelementptr inbounds nuw %"struct.(anonymous namespace)::pj_affine_coeffs", ptr %67, i32 0, i32 6
  %69 = load double, ptr %68, align 8, !tbaa !84
  %70 = load double, ptr %7, align 8, !tbaa !77
  %71 = call double @llvm.fmuladd.f64(double %69, double %70, double %66)
  %72 = load ptr, ptr %6, align 8, !tbaa !75
  %73 = getelementptr inbounds nuw %"struct.(anonymous namespace)::pj_affine_coeffs", ptr %72, i32 0, i32 7
  %74 = load double, ptr %73, align 8, !tbaa !85
  %75 = load double, ptr %8, align 8, !tbaa !77
  %76 = call double @llvm.fmuladd.f64(double %74, double %75, double %71)
  %77 = load ptr, ptr %6, align 8, !tbaa !75
  %78 = getelementptr inbounds nuw %"struct.(anonymous namespace)::pj_affine_coeffs", ptr %77, i32 0, i32 8
  %79 = load double, ptr %78, align 8, !tbaa !86
  %80 = load double, ptr %9, align 8, !tbaa !77
  %81 = call double @llvm.fmuladd.f64(double %79, double %80, double %76)
  %82 = load ptr, ptr %3, align 8, !tbaa !73
  %83 = getelementptr inbounds nuw %struct.PJ_XYZT, ptr %82, i32 0, i32 2
  store double %81, ptr %83, align 8, !tbaa !52
  %84 = load ptr, ptr %5, align 8, !tbaa !41
  %85 = getelementptr inbounds nuw %"struct.(anonymous namespace)::pj_opaque_affine", ptr %84, i32 0, i32 3
  %86 = load double, ptr %85, align 8, !tbaa !58
  %87 = load ptr, ptr %6, align 8, !tbaa !75
  %88 = getelementptr inbounds nuw %"struct.(anonymous namespace)::pj_affine_coeffs", ptr %87, i32 0, i32 9
  %89 = load double, ptr %88, align 8, !tbaa !87
  %90 = load ptr, ptr %3, align 8, !tbaa !73
  %91 = getelementptr inbounds nuw %struct.PJ_XYZT, ptr %90, i32 0, i32 3
  %92 = load double, ptr %91, align 8, !tbaa !52
  %93 = call double @llvm.fmuladd.f64(double %89, double %92, double %86)
  %94 = load ptr, ptr %3, align 8, !tbaa !73
  %95 = getelementptr inbounds nuw %struct.PJ_XYZT, ptr %94, i32 0, i32 3
  store double %93, ptr %95, align 8, !tbaa !52
  call void @llvm.lifetime.end.p0(i64 8, ptr %9) #8
  call void @llvm.lifetime.end.p0(i64 8, ptr %8) #8
  call void @llvm.lifetime.end.p0(i64 8, ptr %7) #8
  call void @llvm.lifetime.end.p0(i64 8, ptr %6) #8
  call void @llvm.lifetime.end.p0(i64 8, ptr %5) #8
  ret void
}