; Function Attrs: mustprogress nofree norecurse nosync nounwind willreturn memory(read, argmem: readwrite, inaccessiblemem: none) uwtable
define internal void @_ZL10forward_4dR8PJ_COORDP8PJconsts(ptr noundef nonnull align 8 captures(none) dereferenceable(32) %0, ptr noundef readonly captures(none) %1) #2 {
  %3 = getelementptr inbounds nuw i8, ptr %1, i64 88
  %4 = load ptr, ptr %3, align 8, !tbaa !50
  %5 = getelementptr inbounds nuw i8, ptr %4, i64 32
  %6 = load double, ptr %0, align 8, !tbaa !75
  %7 = getelementptr inbounds nuw i8, ptr %0, i64 8
  %8 = load double, ptr %7, align 8, !tbaa !75
  %9 = getelementptr inbounds nuw i8, ptr %0, i64 16
  %10 = load double, ptr %9, align 8, !tbaa !75
  %11 = load double, ptr %4, align 8, !tbaa !59
  %12 = load double, ptr %5, align 8, !tbaa !76
  %13 = tail call double @llvm.fmuladd.f64(double %12, double %6, double %11)
  %14 = getelementptr inbounds nuw i8, ptr %4, i64 40
  %15 = load double, ptr %14, align 8, !tbaa !77
  %16 = tail call double @llvm.fmuladd.f64(double %15, double %8, double %13)
  %17 = getelementptr inbounds nuw i8, ptr %4, i64 48
  %18 = load double, ptr %17, align 8, !tbaa !78
  %19 = tail call double @llvm.fmuladd.f64(double %18, double %10, double %16)
  store double %19, ptr %0, align 8, !tbaa !75
  %20 = getelementptr inbounds nuw i8, ptr %4, i64 8
  %21 = load double, ptr %20, align 8, !tbaa !60
  %22 = getelementptr inbounds nuw i8, ptr %4, i64 56
  %23 = load double, ptr %22, align 8, !tbaa !79
  %24 = tail call double @llvm.fmuladd.f64(double %23, double %6, double %21)
  %25 = getelementptr inbounds nuw i8, ptr %4, i64 64
  %26 = load double, ptr %25, align 8, !tbaa !80
  %27 = tail call double @llvm.fmuladd.f64(double %26, double %8, double %24)
  %28 = getelementptr inbounds nuw i8, ptr %4, i64 72
  %29 = load double, ptr %28, align 8, !tbaa !81
  %30 = tail call double @llvm.fmuladd.f64(double %29, double %10, double %27)
  store double %30, ptr %7, align 8, !tbaa !75
  %31 = getelementptr inbounds nuw i8, ptr %4, i64 16
  %32 = load double, ptr %31, align 8, !tbaa !61
  %33 = getelementptr inbounds nuw i8, ptr %4, i64 80
  %34 = load double, ptr %33, align 8, !tbaa !82
  %35 = tail call double @llvm.fmuladd.f64(double %34, double %6, double %32)
  %36 = getelementptr inbounds nuw i8, ptr %4, i64 88
  %37 = load double, ptr %36, align 8, !tbaa !83
  %38 = tail call double @llvm.fmuladd.f64(double %37, double %8, double %35)
  %39 = getelementptr inbounds nuw i8, ptr %4, i64 96
  %40 = load double, ptr %39, align 8, !tbaa !84
  %41 = tail call double @llvm.fmuladd.f64(double %40, double %10, double %38)
  store double %41, ptr %9, align 8, !tbaa !75
  %42 = getelementptr inbounds nuw i8, ptr %4, i64 24
  %43 = load double, ptr %42, align 8, !tbaa !62
  %44 = getelementptr inbounds nuw i8, ptr %4, i64 104
  %45 = load double, ptr %44, align 8, !tbaa !85
  %46 = getelementptr inbounds nuw i8, ptr %0, i64 24
  %47 = load double, ptr %46, align 8, !tbaa !75
  %48 = tail call double @llvm.fmuladd.f64(double %45, double %47, double %43)
  store double %48, ptr %46, align 8, !tbaa !75
  ret void
}